; Function Attrs: mustprogress uwtable
define hidden void @_ZN4lean13inductive_valC2ERKNS_4nameERKNS_8list_refIS1_EERKNS_4exprEjjS7_S7_jbbb(ptr noundef nonnull writeonly align 8 captures(none) dereferenceable(8) %0, ptr noundef nonnull readonly align 8 captures(none) dereferenceable(8) %1, ptr noundef nonnull readonly align 8 captures(none) dereferenceable(8) %2, ptr noundef nonnull readonly align 8 captures(none) dereferenceable(8) %3, i32 noundef %4, i32 noundef %5, ptr noundef nonnull readonly align 8 captures(none) dereferenceable(8) %6, ptr noundef nonnull readonly align 8 captures(none) dereferenceable(8) %7, i32 noundef %8, i1 noundef zeroext %9, i1 noundef zeroext %10, i1 noundef zeroext %11) unnamed_addr #0 align 2 personality ptr @__gxx_personality_v0 {
  %13 = alloca %"class.lean::nat", align 8
  %14 = alloca %"class.lean::nat", align 8
  %15 = alloca %"class.lean::nat", align 8
  %16 = zext i1 %9 to i8
  %17 = zext i1 %10 to i8
  %18 = zext i1 %11 to i8
  %19 = load ptr, ptr %1, align 8, !tbaa !3
  %20 = ptrtoint ptr %19 to i64
  %21 = and i64 %20, 1
  %.not.i.i = icmp eq i64 %21, 0
  br i1 %.not.i.i, label %22, label %_ZNK4lean10object_ref10to_obj_argEv.exit

22:                                               ; preds = %12
  %.val.i.i.i = load i32, ptr %19, align 4, !tbaa !8
  %23 = icmp sgt i32 %.val.i.i.i, 0
  br i1 %23, label %24, label %26, !prof !11

24:                                               ; preds = %22
  %25 = add nuw nsw i32 %.val.i.i.i, 1
  store i32 %25, ptr %19, align 4, !tbaa !8
  br label %_ZNK4lean10object_ref10to_obj_argEv.exit

26:                                               ; preds = %22
  %.not.i.i.i = icmp eq i32 %.val.i.i.i, 0
  br i1 %.not.i.i.i, label %_ZNK4lean10object_ref10to_obj_argEv.exit, label %27

27:                                               ; preds = %26
  tail call void @lean_inc_ref_cold(ptr noundef nonnull %19)
  %.pre.i = load ptr, ptr %1, align 8, !tbaa !3
  br label %_ZNK4lean10object_ref10to_obj_argEv.exit

_ZNK4lean10object_ref10to_obj_argEv.exit:         ; preds = %12, %24, %26, %27
  %28 = phi ptr [ %19, %12 ], [ %19, %24 ], [ %19, %26 ], [ %.pre.i, %27 ]
  %29 = load ptr, ptr %2, align 8, !tbaa !3
  %30 = ptrtoint ptr %29 to i64
  %31 = and i64 %30, 1
  %.not.i.i21 = icmp eq i64 %31, 0
  br i1 %.not.i.i21, label %32, label %_ZNK4lean10object_ref10to_obj_argEv.exit25

32:                                               ; preds = %_ZNK4lean10object_ref10to_obj_argEv.exit
  %.val.i.i.i22 = load i32, ptr %29, align 4, !tbaa !8
  %33 = icmp sgt i32 %.val.i.i.i22, 0
  br i1 %33, label %34, label %36, !prof !11

34:                                               ; preds = %32
  %35 = add nuw nsw i32 %.val.i.i.i22, 1
  store i32 %35, ptr %29, align 4, !tbaa !8
  br label %_ZNK4lean10object_ref10to_obj_argEv.exit25

36:                                               ; preds = %32
  %.not.i.i.i23 = icmp eq i32 %.val.i.i.i22, 0
  br i1 %.not.i.i.i23, label %_ZNK4lean10object_ref10to_obj_argEv.exit25, label %37

37:                                               ; preds = %36
  tail call void @lean_inc_ref_cold(ptr noundef nonnull %29)
  %.pre.i24 = load ptr, ptr %2, align 8, !tbaa !3
  br label %_ZNK4lean10object_ref10to_obj_argEv.exit25

_ZNK4lean10object_ref10to_obj_argEv.exit25:       ; preds = %_ZNK4lean10object_ref10to_obj_argEv.exit, %34, %36, %37
  %38 = phi ptr [ %29, %_ZNK4lean10object_ref10to_obj_argEv.exit ], [ %29, %34 ], [ %29, %36 ], [ %.pre.i24, %37 ]
  %39 = load ptr, ptr %3, align 8, !tbaa !3
  %40 = ptrtoint ptr %39 to i64
  %41 = and i64 %40, 1
  %.not.i.i26 = icmp eq i64 %41, 0
  br i1 %.not.i.i26, label %42, label %48

42:                                               ; preds = %_ZNK4lean10object_ref10to_obj_argEv.exit25
  %.val.i.i.i27 = load i32, ptr %39, align 4, !tbaa !8
  %43 = icmp sgt i32 %.val.i.i.i27, 0
  br i1 %43, label %44, label %46, !prof !11

44:                                               ; preds = %42
  %45 = add nuw nsw i32 %.val.i.i.i27, 1
  store i32 %45, ptr %39, align 4, !tbaa !8
  br label %48

46:                                               ; preds = %42
  %.not.i.i.i28 = icmp eq i32 %.val.i.i.i27, 0
  br i1 %.not.i.i.i28, label %48, label %47

47:                                               ; preds = %46
  tail call void @lean_inc_ref_cold(ptr noundef nonnull %39)
  %.pre.i29 = load ptr, ptr %3, align 8, !tbaa !3
  br label %48

48:                                               ; preds = %47, %46, %44, %_ZNK4lean10object_ref10to_obj_argEv.exit25
  %49 = phi ptr [ %39, %_ZNK4lean10object_ref10to_obj_argEv.exit25 ], [ %39, %44 ], [ %39, %46 ], [ %.pre.i29, %47 ]
  call void @llvm.lifetime.start.p0(i64 8, ptr nonnull %13) #16
  %50 = zext i32 %4 to i64
  %51 = shl nuw nsw i64 %50, 1
  %52 = or disjoint i64 %51, 1
  %53 = inttoptr i64 %52 to ptr
  store ptr %53, ptr %13, align 8, !tbaa !3
  call void @llvm.lifetime.start.p0(i64 8, ptr nonnull %14) #16
  %54 = zext i32 %5 to i64
  %55 = shl nuw nsw i64 %54, 1
  %56 = or disjoint i64 %55, 1
  %57 = inttoptr i64 %56 to ptr
  store ptr %57, ptr %14, align 8, !tbaa !3
  %58 = load ptr, ptr %6, align 8, !tbaa !3
  %59 = ptrtoint ptr %58 to i64
  %60 = and i64 %59, 1
  %.not.i.i42 = icmp eq i64 %60, 0
  br i1 %.not.i.i42, label %61, label %_ZNK4lean10object_ref10to_obj_argEv.exit47

61:                                               ; preds = %48
  %.val.i.i.i43 = load i32, ptr %58, align 4, !tbaa !8
  %62 = icmp sgt i32 %.val.i.i.i43, 0
  br i1 %62, label %63, label %65, !prof !11

63:                                               ; preds = %61
  %64 = add nuw nsw i32 %.val.i.i.i43, 1
  store i32 %64, ptr %58, align 4, !tbaa !8
  br label %_ZNK4lean10object_ref10to_obj_argEv.exit47

65:                                               ; preds = %61
  %.not.i.i.i44 = icmp eq i32 %.val.i.i.i43, 0
  br i1 %.not.i.i.i44, label %_ZNK4lean10object_ref10to_obj_argEv.exit47, label %66

66:                                               ; preds = %65
  invoke void @lean_inc_ref_cold(ptr noundef nonnull %58)
          to label %.noexc46 unwind label %84

.noexc46:                                         ; preds = %66
  %.pre.i45 = load ptr, ptr %6, align 8, !tbaa !3
  br label %_ZNK4lean10object_ref10to_obj_argEv.exit47

_ZNK4lean10object_ref10to_obj_argEv.exit47:       ; preds = %.noexc46, %65, %63, %48
  %67 = phi ptr [ %58, %48 ], [ %58, %63 ], [ %58, %65 ], [ %.pre.i45, %.noexc46 ]
  %68 = load ptr, ptr %7, align 8, !tbaa !3
  %69 = ptrtoint ptr %68 to i64
  %70 = and i64 %69, 1
  %.not.i.i48 = icmp eq i64 %70, 0
  br i1 %.not.i.i48, label %71, label %77

71:                                               ; preds = %_ZNK4lean10object_ref10to_obj_argEv.exit47
  %.val.i.i.i49 = load i32, ptr %68, align 4, !tbaa !8
  %72 = icmp sgt i32 %.val.i.i.i49, 0
  br i1 %72, label %73, label %75, !prof !11

73:                                               ; preds = %71
  %74 = add nuw nsw i32 %.val.i.i.i49, 1
  store i32 %74, ptr %68, align 4, !tbaa !8
  br label %77

75:                                               ; preds = %71
  %.not.i.i.i50 = icmp eq i32 %.val.i.i.i49, 0
  br i1 %.not.i.i.i50, label %77, label %76

76:                                               ; preds = %75
  invoke void @lean_inc_ref_cold(ptr noundef nonnull %68)
          to label %.noexc52 unwind label %84

.noexc52:                                         ; preds = %76
  %.pre.i51 = load ptr, ptr %7, align 8, !tbaa !3
  br label %77

77:                                               ; preds = %_ZNK4lean10object_ref10to_obj_argEv.exit47, %73, %75, %.noexc52
  %78 = phi ptr [ %68, %_ZNK4lean10object_ref10to_obj_argEv.exit47 ], [ %68, %73 ], [ %68, %75 ], [ %.pre.i51, %.noexc52 ]
  call void @llvm.lifetime.start.p0(i64 8, ptr nonnull %15) #16
  %79 = zext i32 %8 to i64
  %80 = shl nuw nsw i64 %79, 1
  %81 = or disjoint i64 %80, 1
  %82 = inttoptr i64 %81 to ptr
  store ptr %82, ptr %15, align 8, !tbaa !3
  %83 = invoke ptr @lean_mk_inductive_val(ptr noundef %28, ptr noundef %38, ptr noundef %49, ptr noundef nonnull %53, ptr noundef nonnull %57, ptr noundef %67, ptr noundef %78, ptr noundef nonnull %82, i8 noundef zeroext %16, i8 noundef zeroext %17, i8 noundef zeroext %18)
          to label %_ZN4lean10object_refD2Ev.exit67 unwind label %86

_ZN4lean10object_refD2Ev.exit67:                  ; preds = %77
  store ptr %83, ptr %0, align 8, !tbaa !3
  call void @llvm.lifetime.end.p0(i64 8, ptr nonnull %15) #16
  call void @llvm.lifetime.end.p0(i64 8, ptr nonnull %14) #16
  call void @llvm.lifetime.end.p0(i64 8, ptr nonnull %13) #16
  ret void

84:                                               ; preds = %76, %66
  %85 = landingpad { ptr, i32 }
          cleanup
  br label %88

86:                                               ; preds = %77
  %87 = landingpad { ptr, i32 }
          cleanup
  call void @_ZN4lean10object_refD2Ev(ptr noundef nonnull align 8 dereferenceable(8) %15) #16
  call void @llvm.lifetime.end.p0(i64 8, ptr nonnull %15) #16
  br label %88

88:                                               ; preds = %86, %84
  %.pn.pn = phi { ptr, i32 } [ %87, %86 ], [ %85, %84 ]
  call void @_ZN4lean10object_refD2Ev(ptr noundef nonnull align 8 dereferenceable(8) %14) #16
  call void @llvm.lifetime.end.p0(i64 8, ptr nonnull %14) #16
  call void @_ZN4lean10object_refD2Ev(ptr noundef nonnull align 8 dereferenceable(8) %13) #16
  call void @llvm.lifetime.end.p0(i64 8, ptr nonnull %13) #16
  resume { ptr, i32 } %.pn.pn
}